(dp1
S'output'
p2
S"<type 'exceptions.SyntaxError'> define_table argument is not a Field or Table: _Row___status____Need_Fixing____no_of_frames___43L___name____Shot_01____is_active___True___modlified_by____name____id___2L___modlified_date___datetime.datetime_2019__4__12__16__41__30____description____zfddjk___"
p3
sS'layer'
p4
S'C:\\Users\\zivsh\\Desktop\\web2pyTask\\web2py\\applications\\app\\controllers/shots.py'
p5
sS'code'
p6
S'<code object <module> at 08FD28D8, file "C:\\Users\\zivsh\\Desktop\\web2pyTask\\web2py\\applications\\app\\controllers/shots.py", line 1>'
p7
sS'snapshot'
p8
(dp9
sS'traceback'
p10
S'Traceback (most recent call last):\n  File "C:\\Users\\zivsh\\Desktop\\web2pyTask\\web2py\\gluon\\restricted.py", line 219, in restricted\n    exec(ccode, environment)\n  File "C:\\Users\\zivsh\\Desktop\\web2pyTask\\web2py\\applications\\app\\controllers/shots.py", line 18, in <module>\n  File "C:\\Users\\zivsh\\Desktop\\web2pyTask\\web2py\\gluon\\globals.py", line 421, in <lambda>\n    self._caller = lambda f: f()\n  File "C:\\Users\\zivsh\\Desktop\\web2pyTask\\web2py\\applications\\app\\controllers/shots.py", line 15, in display_form\n    form=SQLFORM.factory(db.Shots, args)\n  File "C:\\Users\\zivsh\\Desktop\\web2pyTask\\web2py\\gluon\\sqlhtml.py", line 2028, in factory\n    return SQLFORM(dummy_dal.define_table(table_name, *fields_with_clones), **attributes)\n  File "C:\\Users\\zivsh\\Desktop\\web2pyTask\\web2py\\gluon\\packages\\dal\\pydal\\base.py", line 590, in define_table\n    table = self.lazy_define_table(tablename, *fields, **kwargs)\n  File "C:\\Users\\zivsh\\Desktop\\web2pyTask\\web2py\\gluon\\packages\\dal\\pydal\\base.py", line 602, in lazy_define_table\n    table = table_class(self, tablename, *fields, **kwargs)\n  File "C:\\Users\\zivsh\\Desktop\\web2pyTask\\web2py\\gluon\\packages\\dal\\pydal\\objects.py", line 318, in __init__\n    field\nSyntaxError: define_table argument is not a Field or Table: _Row___status____Need_Fixing____no_of_frames___43L___name____Shot_01____is_active___True___modlified_by____name____id___2L___modlified_date___datetime.datetime_2019__4__12__16__41__30____description____zfddjk___\n'
p11
s.